target datalayout = "e-m:e-p270:32:32-p271:32:32-p272:64:64-i64:64-i128:128-f80:128-n8:16:32:64-S128"
target triple = "x86_64-pc-linux-gnu"

%struct._ttinfo = type { i32, i32, i32, i32, i32 }

; Function Attrs: nounwind uwtable
define hidden i32 @timelib_timestamp_is_in_dst(i64 noundef %0, ptr noundef %1) #0 {
  %3 = alloca i32, align 4
  %4 = alloca i64, align 8
  %5 = alloca ptr, align 8
  %6 = alloca ptr, align 8
  %7 = alloca i64, align 8
  %8 = alloca i32, align 4
  store i64 %0, ptr %4, align 8, !tbaa !64
  store ptr %1, ptr %5, align 8, !tbaa !4
  call void @llvm.lifetime.start.p0(i64 8, ptr %6) #11
  call void @llvm.lifetime.start.p0(i64 8, ptr %7) #11
  %9 = load ptr, ptr %5, align 8, !tbaa !4
  %10 = load i64, ptr %4, align 8, !tbaa !64
  %11 = call ptr @timelib_fetch_timezone_offset(ptr noundef %9, i64 noundef %10, ptr noundef %7)
  store ptr %11, ptr %6, align 8, !tbaa !96
  %12 = icmp ne ptr %11, null
  br i1 %12, label %13, label %17

13:                                               ; preds = %2
  %14 = load ptr, ptr %6, align 8, !tbaa !96
  %15 = getelementptr inbounds nuw %struct._ttinfo, ptr %14, i32 0, i32 1
  %16 = load i32, ptr %15, align 4, !tbaa !59
  store i32 %16, ptr %3, align 4
  store i32 1, ptr %8, align 4
  br label %18

17:                                               ; preds = %2
  store i32 -1, ptr %3, align 4
  store i32 1, ptr %8, align 4
  br label %18

18:                                               ; preds = %17, %13
  call void @llvm.lifetime.end.p0(i64 8, ptr %7) #11
  call void @llvm.lifetime.end.p0(i64 8, ptr %6) #11
  %19 = load i32, ptr %3, align 4
  ret i32 %19
}